	.file	"tool.cpp"
	.text
.Ltext0:
	.cfi_sections	.debug_frame
.globl vb
	.bss
	.align 4
	.type	vb, @object
	.size	vb, 4
vb:
	.zero	4
	.text
.globl _Z6get_vbv
	.type	_Z6get_vbv, @function
_Z6get_vbv:
.LFB0:
	.file 1 "tool.cpp"
	.loc 1 7 0
	.cfi_startproc
	pushl	%ebp
.LCFI0:
	.cfi_def_cfa_offset 8
	movl	%esp, %ebp
	.cfi_offset 5, -8
.LCFI1:
	.cfi_def_cfa_register 5
	.loc 1 10 0
	popl	%ebp
	ret
	.cfi_endproc
.LFE0:
	.size	_Z6get_vbv, .-_Z6get_vbv
.globl _Z5printc
	.type	_Z5printc, @function
_Z5printc:
.LFB1:
	.loc 1 13 0
	.cfi_startproc
	pushl	%ebp
.LCFI2:
	.cfi_def_cfa_offset 8
	movl	%esp, %ebp
	.cfi_offset 5, -8
.LCFI3:
	.cfi_def_cfa_register 5
	subl	$20, %esp
	movl	8(%ebp), %eax
	movb	%al, -20(%ebp)
.LBB2:
	.loc 1 17 0
#APP
# 17 "tool.cpp" 1
	xchg %bx, %bx
# 0 "" 2
	.loc 1 19 0
#NO_APP
	call	_Z6get_vbv
	movl	%eax, -4(%ebp)
	.loc 1 20 0
	movzbl	-20(%ebp), %edx
	movl	-4(%ebp), %eax
	movb	%dl, (%eax)
	addl	$1, -4(%ebp)
	.loc 1 21 0
	movl	-4(%ebp), %eax
	movb	$9, (%eax)
	addl	$1, -4(%ebp)
.LBE2:
	.loc 1 22 0
	leave
	ret
	.cfi_endproc
.LFE1:
	.size	_Z5printc, .-_Z5printc
.globl _Z5printPKc
	.type	_Z5printPKc, @function
_Z5printPKc:
.LFB2:
	.loc 1 25 0
	.cfi_startproc
	pushl	%ebp
.LCFI4:
	.cfi_def_cfa_offset 8
	movl	%esp, %ebp
	.cfi_offset 5, -8
.LCFI5:
	.cfi_def_cfa_register 5
	subl	$20, %esp
.LBB3:
	.loc 1 26 0
	movl	8(%ebp), %eax
	movl	%eax, -4(%ebp)
	.loc 1 27 0
	jmp	.L6
.L7:
	.loc 1 28 0
	movl	-4(%ebp), %eax
	movzbl	(%eax), %eax
	movsbl	%al,%eax
	addl	$1, -4(%ebp)
	movl	%eax, (%esp)
	call	_Z5printc
.L6:
	.loc 1 27 0
	movl	-4(%ebp), %eax
	movzbl	(%eax), %eax
	testb	%al, %al
	setne	%al
	testb	%al, %al
	jne	.L7
.LBE3:
	.loc 1 29 0
	leave
	ret
	.cfi_endproc
.LFE2:
	.size	_Z5printPKc, .-_Z5printPKc
	.type	_Z41__static_initialization_and_destruction_0ii, @function
_Z41__static_initialization_and_destruction_0ii:
.LFB3:
	.loc 1 29 0
	.cfi_startproc
	pushl	%ebp
.LCFI6:
	.cfi_def_cfa_offset 8
	movl	%esp, %ebp
	.cfi_offset 5, -8
.LCFI7:
	.cfi_def_cfa_register 5
	.loc 1 29 0
	cmpl	$1, 8(%ebp)
	jne	.L11
	cmpl	$65535, 12(%ebp)
	jne	.L11
	.loc 1 5 0
	movl	load_addr, %eax
	movl	$753824, %edx
	movl	%edx, %ecx
	subl	%eax, %ecx
	movl	%ecx, %eax
	movl	%eax, vb
.L11:
	.loc 1 29 0
	popl	%ebp
	ret
	.cfi_endproc
.LFE3:
	.size	_Z41__static_initialization_and_destruction_0ii, .-_Z41__static_initialization_and_destruction_0ii
	.type	_GLOBAL__I_vb, @function
_GLOBAL__I_vb:
.LFB4:
	.loc 1 29 0
	.cfi_startproc
	pushl	%ebp
.LCFI8:
	.cfi_def_cfa_offset 8
	movl	%esp, %ebp
	.cfi_offset 5, -8
.LCFI9:
	.cfi_def_cfa_register 5
	subl	$8, %esp
	.loc 1 29 0
	movl	$65535, 4(%esp)
	movl	$1, (%esp)
	call	_Z41__static_initialization_and_destruction_0ii
	leave
	ret
	.cfi_endproc
.LFE4:
	.size	_GLOBAL__I_vb, .-_GLOBAL__I_vb
	.section	.ctors,"aw",@progbits
	.align 4
	.long	_GLOBAL__I_vb
	.text
.Letext0:
	.section	.note.GNU-stack,"",@progbits
